; Function Attrs: mustprogress nofree norecurse nosync nounwind willreturn memory(none) uwtable
define { i64, i64 } @_ZN3fmt3v116detail9dragonbox16get_cached_powerEi(i32 noundef %0) local_unnamed_addr #14 personality ptr @__gxx_personality_v0 {
  %2 = add i32 %0, 292
  %3 = sdiv i32 %2, 27
  %4 = mul nsw i32 %3, 27
  %5 = add nsw i32 %4, -292
  %6 = sext i32 %3 to i64
  %7 = getelementptr inbounds [24 x %"class.fmt::v11::detail::uint128_fallback"], ptr @_ZZN3fmt3v116detail9dragonbox14cache_accessorIdE16get_cached_powerEiE18pow10_significands, i64 0, i64 %6
  %.sroa.034.0.copyload.i = load i64, ptr %7, align 16, !tbaa !12
  %.sroa.5.0..sroa_idx.i = getelementptr inbounds nuw i8, ptr %7, i64 8
  %.sroa.5.0.copyload.i = load i64, ptr %.sroa.5.0..sroa_idx.i, align 8, !tbaa !12
  %8 = icmp eq i32 %0, %5
  br i1 %8, label %_ZN3fmt3v116detail9dragonbox14cache_accessorIdE16get_cached_powerEi.exit, label %9

9:                                                ; preds = %1
  %10 = sub nsw i32 %0, %5
  %11 = mul nsw i32 %0, 1741647
  %12 = ashr i32 %11, 19
  %13 = mul nsw i32 %5, 1741647
  %14 = ashr i32 %13, 19
  %15 = add i32 %10, %14
  %16 = sub i32 %12, %15
  %17 = sext i32 %10 to i64
  %18 = getelementptr inbounds [27 x i64], ptr @_ZZN3fmt3v116detail9dragonbox14cache_accessorIdE16get_cached_powerEiE14powers_of_5_64, i64 0, i64 %17
  %19 = load i64, ptr %18, align 8, !tbaa !12
  %20 = zext i64 %.sroa.5.0.copyload.i to i128
  %21 = zext i64 %19 to i128
  %22 = mul nuw i128 %21, %20
  %23 = lshr i128 %22, 64
  %24 = trunc nuw i128 %23 to i64
  %25 = trunc i128 %22 to i64
  %26 = zext i64 %.sroa.034.0.copyload.i to i128
  %27 = mul nuw i128 %21, %26
  %28 = lshr i128 %27, 64
  %29 = trunc nuw i128 %28 to i64
  %30 = trunc i128 %27 to i64
  %31 = tail call { i64, i1 } @llvm.uadd.with.overflow.i64(i64 %25, i64 %29)
  %32 = extractvalue { i64, i1 } %31, 1
  %33 = extractvalue { i64, i1 } %31, 0
  %34 = zext i1 %32 to i64
  %35 = add nuw i64 %34, %24
  %36 = sub nsw i32 64, %16
  %37 = zext i32 %36 to i64
  %38 = shl i64 %35, %37
  %39 = shl i64 %33, %37
  %40 = zext i32 %16 to i64
  %41 = lshr i64 %33, %40
  %42 = or i64 %38, %41
  %43 = lshr i64 %30, %40
  %44 = or i64 %39, %43
  %45 = add i64 %44, 1
  br label %_ZN3fmt3v116detail9dragonbox14cache_accessorIdE16get_cached_powerEi.exit

_ZN3fmt3v116detail9dragonbox14cache_accessorIdE16get_cached_powerEi.exit: ; preds = %1, %9
  %.sroa.038.0.i = phi i64 [ %45, %9 ], [ %.sroa.034.0.copyload.i, %1 ]
  %.sroa.3.0.i = phi i64 [ %42, %9 ], [ %.sroa.5.0.copyload.i, %1 ]
  %.fca.0.insert.i = insertvalue { i64, i64 } poison, i64 %.sroa.038.0.i, 0
  %.fca.1.insert.i = insertvalue { i64, i64 } %.fca.0.insert.i, i64 %.sroa.3.0.i, 1
  ret { i64, i64 } %.fca.1.insert.i
}